target datalayout = "e-m:e-p270:32:32-p271:32:32-p272:64:64-i64:64-i128:128-f80:128-n8:16:32:64-S128"
target triple = "x86_64-pc-linux-gnu"

%struct.SMgrRelationData = type { %struct.RelFileLocatorBackend, i32, [4 x i32], i32, [4 x i32], [4 x ptr], i32, %struct.dlist_node }
%struct.RelFileLocatorBackend = type { %struct.RelFileLocator, i32 }
%struct.RelFileLocator = type { i32, i32, i32 }
%struct.dlist_node = type { ptr, ptr }
%struct._MdfdVec = type { i32, i32 }

@MdCxt = internal global ptr null, align 8

; Function Attrs: nounwind uwtable
define internal void @_fdvec_resize(ptr noundef %0, i32 noundef %1, i32 noundef %2) #0 {
  %4 = alloca ptr, align 8
  %5 = alloca i32, align 4
  %6 = alloca i32, align 4
  store ptr %0, ptr %4, align 8
  store i32 %1, ptr %5, align 4
  store i32 %2, ptr %6, align 4
  %7 = load i32, ptr %6, align 4
  %8 = icmp eq i32 %7, 0
  br i1 %8, label %9, label %30

9:                                                ; preds = %3
  %10 = load ptr, ptr %4, align 8
  %11 = getelementptr inbounds nuw %struct.SMgrRelationData, ptr %10, i32 0, i32 4
  %12 = load i32, ptr %5, align 4
  %13 = sext i32 %12 to i64
  %14 = getelementptr inbounds [4 x i32], ptr %11, i64 0, i64 %13
  %15 = load i32, ptr %14, align 4
  %16 = icmp sgt i32 %15, 0
  br i1 %16, label %17, label %29

17:                                               ; preds = %9
  %18 = load ptr, ptr %4, align 8
  %19 = getelementptr inbounds nuw %struct.SMgrRelationData, ptr %18, i32 0, i32 5
  %20 = load i32, ptr %5, align 4
  %21 = sext i32 %20 to i64
  %22 = getelementptr inbounds [4 x ptr], ptr %19, i64 0, i64 %21
  %23 = load ptr, ptr %22, align 8
  call void @pfree(ptr noundef %23)
  %24 = load ptr, ptr %4, align 8
  %25 = getelementptr inbounds nuw %struct.SMgrRelationData, ptr %24, i32 0, i32 5
  %26 = load i32, ptr %5, align 4
  %27 = sext i32 %26 to i64
  %28 = getelementptr inbounds [4 x ptr], ptr %25, i64 0, i64 %27
  store ptr null, ptr %28, align 8
  br label %29

29:                                               ; preds = %17, %9
  br label %77

30:                                               ; preds = %3
  %31 = load ptr, ptr %4, align 8
  %32 = getelementptr inbounds nuw %struct.SMgrRelationData, ptr %31, i32 0, i32 4
  %33 = load i32, ptr %5, align 4
  %34 = sext i32 %33 to i64
  %35 = getelementptr inbounds [4 x i32], ptr %32, i64 0, i64 %34
  %36 = load i32, ptr %35, align 4
  %37 = icmp eq i32 %36, 0
  br i1 %37, label %38, label %49

38:                                               ; preds = %30
  %39 = load ptr, ptr @MdCxt, align 8
  %40 = load i32, ptr %6, align 4
  %41 = sext i32 %40 to i64
  %42 = mul i64 8, %41
  %43 = call ptr @MemoryContextAlloc(ptr noundef %39, i64 noundef %42)
  %44 = load ptr, ptr %4, align 8
  %45 = getelementptr inbounds nuw %struct.SMgrRelationData, ptr %44, i32 0, i32 5
  %46 = load i32, ptr %5, align 4
  %47 = sext i32 %46 to i64
  %48 = getelementptr inbounds [4 x ptr], ptr %45, i64 0, i64 %47
  store ptr %43, ptr %48, align 8
  br label %76

49:                                               ; preds = %30
  %50 = load i32, ptr %6, align 4
  %51 = load ptr, ptr %4, align 8
  %52 = getelementptr inbounds nuw %struct.SMgrRelationData, ptr %51, i32 0, i32 4
  %53 = load i32, ptr %5, align 4
  %54 = sext i32 %53 to i64
  %55 = getelementptr inbounds [4 x i32], ptr %52, i64 0, i64 %54
  %56 = load i32, ptr %55, align 4
  %57 = icmp sgt i32 %50, %56
  br i1 %57, label %58, label %74

58:                                               ; preds = %49
  %59 = load ptr, ptr %4, align 8
  %60 = getelementptr inbounds nuw %struct.SMgrRelationData, ptr %59, i32 0, i32 5
  %61 = load i32, ptr %5, align 4
  %62 = sext i32 %61 to i64
  %63 = getelementptr inbounds [4 x ptr], ptr %60, i64 0, i64 %62
  %64 = load ptr, ptr %63, align 8
  %65 = load i32, ptr %6, align 4
  %66 = sext i32 %65 to i64
  %67 = mul i64 8, %66
  %68 = call ptr @repalloc(ptr noundef %64, i64 noundef %67)
  %69 = load ptr, ptr %4, align 8
  %70 = getelementptr inbounds nuw %struct.SMgrRelationData, ptr %69, i32 0, i32 5
  %71 = load i32, ptr %5, align 4
  %72 = sext i32 %71 to i64
  %73 = getelementptr inbounds [4 x ptr], ptr %70, i64 0, i64 %72
  store ptr %68, ptr %73, align 8
  br label %75

74:                                               ; preds = %49
  br label %75

75:                                               ; preds = %74, %58
  br label %76

76:                                               ; preds = %75, %38
  br label %77

77:                                               ; preds = %76, %29
  %78 = load i32, ptr %6, align 4
  %79 = load ptr, ptr %4, align 8
  %80 = getelementptr inbounds nuw %struct.SMgrRelationData, ptr %79, i32 0, i32 4
  %81 = load i32, ptr %5, align 4
  %82 = sext i32 %81 to i64
  %83 = getelementptr inbounds [4 x i32], ptr %80, i64 0, i64 %82
  store i32 %78, ptr %83, align 4
  ret void
}

; Function Attrs: nounwind uwtable
define dso_local void @mdregistersync(ptr noundef %0, i32 noundef %1) #0 {
  %3 = alloca ptr, align 8
  %4 = alloca i32, align 4
  %5 = alloca i32, align 4
  %6 = alloca i32, align 4
  %7 = alloca ptr, align 8
  store ptr %0, ptr %3, align 8
  store i32 %1, ptr %4, align 4
  call void @llvm.lifetime.start.p0(i64 4, ptr %5) #10
  call void @llvm.lifetime.start.p0(i64 4, ptr %6) #10
  %8 = load ptr, ptr %3, align 8
  %9 = load i32, ptr %4, align 4
  %10 = call i32 @mdnblocks(ptr noundef %8, i32 noundef %9)
  %11 = load ptr, ptr %3, align 8
  %12 = getelementptr inbounds nuw %struct.SMgrRelationData, ptr %11, i32 0, i32 4
  %13 = load i32, ptr %4, align 4
  %14 = sext i32 %13 to i64
  %15 = getelementptr inbounds [4 x i32], ptr %12, i64 0, i64 %14
  %16 = load i32, ptr %15, align 4
  store i32 %16, ptr %5, align 4
  store i32 %16, ptr %6, align 4
  br label %17

17:                                               ; preds = %23, %2
  %18 = load ptr, ptr %3, align 8
  %19 = load i32, ptr %4, align 4
  %20 = load i32, ptr %5, align 4
  %21 = call ptr @_mdfd_openseg(ptr noundef %18, i32 noundef %19, i32 noundef %20, i32 noundef 0)
  %22 = icmp ne ptr %21, null
  br i1 %22, label %23, label %26

23:                                               ; preds = %17
  %24 = load i32, ptr %5, align 4
  %25 = add i32 %24, 1
  store i32 %25, ptr %5, align 4
  br label %17, !llvm.loop !20

26:                                               ; preds = %17
  br label %27

27:                                               ; preds = %55, %26
  %28 = load i32, ptr %5, align 4
  %29 = icmp sgt i32 %28, 0
  br i1 %29, label %30, label %58

30:                                               ; preds = %27
  call void @llvm.lifetime.start.p0(i64 8, ptr %7) #10
  %31 = load ptr, ptr %3, align 8
  %32 = getelementptr inbounds nuw %struct.SMgrRelationData, ptr %31, i32 0, i32 5
  %33 = load i32, ptr %4, align 4
  %34 = sext i32 %33 to i64
  %35 = getelementptr inbounds [4 x ptr], ptr %32, i64 0, i64 %34
  %36 = load ptr, ptr %35, align 8
  %37 = load i32, ptr %5, align 4
  %38 = sub i32 %37, 1
  %39 = sext i32 %38 to i64
  %40 = getelementptr inbounds %struct._MdfdVec, ptr %36, i64 %39
  store ptr %40, ptr %7, align 8
  %41 = load ptr, ptr %3, align 8
  %42 = load i32, ptr %4, align 4
  %43 = load ptr, ptr %7, align 8
  call void @register_dirty_segment(ptr noundef %41, i32 noundef %42, ptr noundef %43)
  %44 = load i32, ptr %5, align 4
  %45 = load i32, ptr %6, align 4
  %46 = icmp sgt i32 %44, %45
  br i1 %46, label %47, label %55

47:                                               ; preds = %30
  %48 = load ptr, ptr %7, align 8
  %49 = getelementptr inbounds nuw %struct._MdfdVec, ptr %48, i32 0, i32 0
  %50 = load i32, ptr %49, align 4
  call void @FileClose(i32 noundef %50)
  %51 = load ptr, ptr %3, align 8
  %52 = load i32, ptr %4, align 4
  %53 = load i32, ptr %5, align 4
  %54 = sub i32 %53, 1
  call void @_fdvec_resize(ptr noundef %51, i32 noundef %52, i32 noundef %54)
  br label %55

55:                                               ; preds = %47, %30
  %56 = load i32, ptr %5, align 4
  %57 = add i32 %56, -1
  store i32 %57, ptr %5, align 4
  call void @llvm.lifetime.end.p0(i64 8, ptr %7) #10
  br label %27, !llvm.loop !21

58:                                               ; preds = %27
  call void @llvm.lifetime.end.p0(i64 4, ptr %6) #10
  call void @llvm.lifetime.end.p0(i64 4, ptr %5) #10
  ret void
}