; Function Attrs: nounwind uwtable
define dso_local void @mdregistersync(ptr noundef captures(none) %0, i32 noundef %1) local_unnamed_addr #0 {
  %3 = tail call i32 @mdnblocks(ptr noundef %0, i32 noundef %1)
  %4 = getelementptr inbounds nuw i8, ptr %0, i64 40
  %5 = sext i32 %1 to i64
  %6 = getelementptr inbounds [4 x i32], ptr %4, i64 0, i64 %5
  %7 = load i32, ptr %6, align 4
  br label %8

8:                                                ; preds = %8, %2
  %.0 = phi i32 [ %7, %2 ], [ %10, %8 ]
  %9 = tail call fastcc ptr @_mdfd_openseg(ptr noundef %0, i32 noundef %1, i32 noundef %.0, i32 noundef 0)
  %.not = icmp eq ptr %9, null
  %10 = add i32 %.0, 1
  br i1 %.not, label %.preheader, label %8, !llvm.loop !13

.preheader:                                       ; preds = %8
  %11 = icmp sgt i32 %.0, 0
  br i1 %11, label %.lr.ph, label %._crit_edge

.lr.ph:                                           ; preds = %.preheader
  %12 = getelementptr inbounds nuw i8, ptr %0, i64 56
  %13 = getelementptr inbounds [4 x ptr], ptr %12, i64 0, i64 %5
  %14 = zext nneg i32 %.0 to i64
  %15 = sext i32 %7 to i64
  br label %16

16:                                               ; preds = %.lr.ph, %42
  %indvars.iv = phi i64 [ %14, %.lr.ph ], [ %indvars.iv.next, %42 ]
  %17 = load ptr, ptr %13, align 8
  %indvars.iv.next = add nsw i64 %indvars.iv, -1
  %18 = getelementptr inbounds nuw %struct._MdfdVec, ptr %17, i64 %indvars.iv.next
  tail call fastcc void @register_dirty_segment(ptr noundef %0, i32 noundef %1, ptr noundef %18)
  %19 = icmp sgt i64 %indvars.iv, %15
  br i1 %19, label %20, label %42

20:                                               ; preds = %16
  %21 = load i32, ptr %18, align 4
  tail call void @FileClose(i32 noundef %21) #15
  %22 = icmp eq i64 %indvars.iv.next, 0
  %23 = load i32, ptr %6, align 4
  br i1 %22, label %24, label %28

24:                                               ; preds = %20
  %25 = icmp sgt i32 %23, 0
  br i1 %25, label %26, label %_fdvec_resize.exit

26:                                               ; preds = %24
  %27 = load ptr, ptr %13, align 8
  tail call void @pfree(ptr noundef %27) #15
  br label %_fdvec_resize.exit.sink.split

28:                                               ; preds = %20
  %29 = icmp eq i32 %23, 0
  br i1 %29, label %30, label %34

30:                                               ; preds = %28
  %31 = load ptr, ptr @MdCxt, align 8
  %32 = shl nuw nsw i64 %indvars.iv.next, 3
  %33 = tail call ptr @MemoryContextAlloc(ptr noundef %31, i64 noundef %32) #15
  br label %_fdvec_resize.exit.sink.split

34:                                               ; preds = %28
  %35 = sext i32 %23 to i64
  %36 = icmp sgt i64 %indvars.iv.next, %35
  br i1 %36, label %37, label %_fdvec_resize.exit

37:                                               ; preds = %34
  %38 = load ptr, ptr %13, align 8
  %39 = shl nuw nsw i64 %indvars.iv.next, 3
  %40 = tail call ptr @repalloc(ptr noundef %38, i64 noundef %39) #15
  br label %_fdvec_resize.exit.sink.split

_fdvec_resize.exit.sink.split:                    ; preds = %37, %30, %26
  %.sink = phi ptr [ null, %26 ], [ %33, %30 ], [ %40, %37 ]
  store ptr %.sink, ptr %13, align 8
  br label %_fdvec_resize.exit

_fdvec_resize.exit:                               ; preds = %_fdvec_resize.exit.sink.split, %24, %34
  %41 = trunc nuw nsw i64 %indvars.iv.next to i32
  store i32 %41, ptr %6, align 4
  br label %42

42:                                               ; preds = %_fdvec_resize.exit, %16
  %43 = icmp samesign ugt i64 %indvars.iv, 1
  br i1 %43, label %16, label %._crit_edge, !llvm.loop !14

._crit_edge:                                      ; preds = %42, %.preheader
  ret void
}